target datalayout = "e-m:e-p270:32:32-p271:32:32-p272:64:64-i64:64-i128:128-f80:128-n8:16:32:64-S128"
target triple = "x86_64-unknown-linux-gnu"

%"class.std::vector" = type { %"struct.std::_Vector_base" }
%"struct.std::_Vector_base" = type { %"struct.std::_Vector_base<boost::shared_ptr<QuantLib::Dividend>, std::allocator<boost::shared_ptr<QuantLib::Dividend>>>::_Vector_impl" }
%"struct.std::_Vector_base<boost::shared_ptr<QuantLib::Dividend>, std::allocator<boost::shared_ptr<QuantLib::Dividend>>>::_Vector_impl" = type { %"struct.std::_Vector_base<boost::shared_ptr<QuantLib::Dividend>, std::allocator<boost::shared_ptr<QuantLib::Dividend>>>::_Vector_impl_data" }
%"struct.std::_Vector_base<boost::shared_ptr<QuantLib::Dividend>, std::allocator<boost::shared_ptr<QuantLib::Dividend>>>::_Vector_impl_data" = type { ptr, ptr, ptr }

; Function Attrs: mustprogress nounwind uwtable
define linkonce_odr void @_ZNSt15__new_allocatorIN5boost10shared_ptrIN8QuantLib8DividendEEEEC2Ev(ptr noundef nonnull align 1 dereferenceable(1) %this) unnamed_addr #1 comdat align 2 {
entry:
  %this.addr = alloca ptr, align 8
  store ptr %this, ptr %this.addr, align 8, !tbaa !3
  ret void
}

; Function Attrs: mustprogress nounwind uwtable
define linkonce_odr void @_ZNSt12_Vector_baseIN5boost10shared_ptrIN8QuantLib8DividendEEESaIS4_EE17_Vector_impl_dataC2Ev(ptr noundef nonnull align 8 dereferenceable(24) %this) unnamed_addr #1 comdat align 2 {
entry:
  %this.addr = alloca ptr, align 8
  store ptr %this, ptr %this.addr, align 8, !tbaa !3
  %this1 = load ptr, ptr %this.addr, align 8
  %_M_start = getelementptr inbounds nuw %"struct.std::_Vector_base<boost::shared_ptr<QuantLib::Dividend>, std::allocator<boost::shared_ptr<QuantLib::Dividend>>>::_Vector_impl_data", ptr %this1, i32 0, i32 0
  store ptr null, ptr %_M_start, align 8, !tbaa !60
  %_M_finish = getelementptr inbounds nuw %"struct.std::_Vector_base<boost::shared_ptr<QuantLib::Dividend>, std::allocator<boost::shared_ptr<QuantLib::Dividend>>>::_Vector_impl_data", ptr %this1, i32 0, i32 1
  store ptr null, ptr %_M_finish, align 8, !tbaa !62
  %_M_end_of_storage = getelementptr inbounds nuw %"struct.std::_Vector_base<boost::shared_ptr<QuantLib::Dividend>, std::allocator<boost::shared_ptr<QuantLib::Dividend>>>::_Vector_impl_data", ptr %this1, i32 0, i32 2
  store ptr null, ptr %_M_end_of_storage, align 8, !tbaa !124
  ret void
}

; Function Attrs: mustprogress nounwind uwtable
define linkonce_odr void @_ZNSaIN5boost10shared_ptrIN8QuantLib8DividendEEEEC2Ev(ptr noundef nonnull align 1 dereferenceable(1) %this) unnamed_addr #1 comdat align 2 {
entry:
  %this.addr = alloca ptr, align 8
  store ptr %this, ptr %this.addr, align 8, !tbaa !3
  %this1 = load ptr, ptr %this.addr, align 8
  call void @_ZNSt15__new_allocatorIN5boost10shared_ptrIN8QuantLib8DividendEEEEC2Ev(ptr noundef nonnull align 1 dereferenceable(1) %this1) #12
  ret void
}

; Function Attrs: mustprogress nounwind uwtable
define linkonce_odr void @_ZNSt12_Vector_baseIN5boost10shared_ptrIN8QuantLib8DividendEEESaIS4_EE12_Vector_implC2Ev(ptr noundef nonnull align 8 dereferenceable(24) %this) unnamed_addr #1 comdat align 2 {
entry:
  %this.addr = alloca ptr, align 8
  store ptr %this, ptr %this.addr, align 8, !tbaa !3
  %this1 = load ptr, ptr %this.addr, align 8
  call void @_ZNSaIN5boost10shared_ptrIN8QuantLib8DividendEEEEC2Ev(ptr noundef nonnull align 1 dereferenceable(1) %this1) #12
  call void @_ZNSt12_Vector_baseIN5boost10shared_ptrIN8QuantLib8DividendEEESaIS4_EE17_Vector_impl_dataC2Ev(ptr noundef nonnull align 8 dereferenceable(24) %this1) #12
  ret void
}

; Function Attrs: mustprogress nounwind uwtable
define linkonce_odr void @_ZNSt12_Vector_baseIN5boost10shared_ptrIN8QuantLib8DividendEEESaIS4_EEC2Ev(ptr noundef nonnull align 8 dereferenceable(24) %this) unnamed_addr #1 comdat align 2 {
entry:
  %this.addr = alloca ptr, align 8
  store ptr %this, ptr %this.addr, align 8, !tbaa !3
  %this1 = load ptr, ptr %this.addr, align 8
  %_M_impl = getelementptr inbounds nuw %"struct.std::_Vector_base", ptr %this1, i32 0, i32 0
  call void @_ZNSt12_Vector_baseIN5boost10shared_ptrIN8QuantLib8DividendEEESaIS4_EE12_Vector_implC2Ev(ptr noundef nonnull align 8 dereferenceable(24) %_M_impl) #12
  ret void
}

; Function Attrs: mustprogress nounwind uwtable
define linkonce_odr void @_ZNSt6vectorIN5boost10shared_ptrIN8QuantLib8DividendEEESaIS4_EEC2Ev(ptr noundef nonnull align 8 dereferenceable(24) %this) unnamed_addr #1 comdat align 2 {
entry:
  %this.addr = alloca ptr, align 8
  store ptr %this, ptr %this.addr, align 8, !tbaa !3
  %this1 = load ptr, ptr %this.addr, align 8
  call void @_ZNSt12_Vector_baseIN5boost10shared_ptrIN8QuantLib8DividendEEESaIS4_EEC2Ev(ptr noundef nonnull align 8 dereferenceable(24) %this1) #12
  ret void
}

; Function Attrs: mustprogress uwtable
define noundef double @_ZNK8QuantLib13BarrierOption17impliedVolatilityEdRKN5boost10shared_ptrINS_30GeneralizedBlackScholesProcessEEEdmdd(ptr noundef nonnull align 8 dereferenceable(248) %this, double noundef %targetValue, ptr noundef nonnull align 8 dereferenceable(16) %process, double noundef %accuracy, i64 noundef %maxEvaluations, double noundef %minVol, double noundef %maxVol) #2 align 2 personality ptr @__gxx_personality_v0 {
entry:
  %this.addr = alloca ptr, align 8
  %targetValue.addr = alloca double, align 8
  %process.addr = alloca ptr, align 8
  %accuracy.addr = alloca double, align 8
  %maxEvaluations.addr = alloca i64, align 8
  %minVol.addr = alloca double, align 8
  %maxVol.addr = alloca double, align 8
  %ref.tmp = alloca %"class.std::vector", align 8
  %exn.slot = alloca ptr, align 8
  %ehselector.slot = alloca i32, align 4
  store ptr %this, ptr %this.addr, align 8, !tbaa !3
  store double %targetValue, ptr %targetValue.addr, align 8, !tbaa !30
  store ptr %process, ptr %process.addr, align 8, !tbaa !3
  store double %accuracy, ptr %accuracy.addr, align 8, !tbaa !30
  store i64 %maxEvaluations, ptr %maxEvaluations.addr, align 8, !tbaa !59
  store double %minVol, ptr %minVol.addr, align 8, !tbaa !30
  store double %maxVol, ptr %maxVol.addr, align 8, !tbaa !30
  %this1 = load ptr, ptr %this.addr, align 8
  %0 = load double, ptr %targetValue.addr, align 8, !tbaa !30
  %1 = load ptr, ptr %process.addr, align 8, !tbaa !3
  call void @llvm.lifetime.start.p0(i64 24, ptr %ref.tmp) #12
  call void @llvm.memset.p0.i64(ptr align 8 %ref.tmp, i8 0, i64 24, i1 false)
  call void @_ZNSt6vectorIN5boost10shared_ptrIN8QuantLib8DividendEEESaIS4_EEC2Ev(ptr noundef nonnull align 8 dereferenceable(24) %ref.tmp) #12
  %2 = load double, ptr %accuracy.addr, align 8, !tbaa !30
  %3 = load i64, ptr %maxEvaluations.addr, align 8, !tbaa !59
  %4 = load double, ptr %minVol.addr, align 8, !tbaa !30
  %5 = load double, ptr %maxVol.addr, align 8, !tbaa !30
  %call = invoke noundef double @_ZNK8QuantLib13BarrierOption17impliedVolatilityEdRKN5boost10shared_ptrINS_30GeneralizedBlackScholesProcessEEERKSt6vectorINS2_INS_8DividendEEESaIS9_EEdmdd(ptr noundef nonnull align 8 dereferenceable(248) %this1, double noundef %0, ptr noundef nonnull align 8 dereferenceable(16) %1, ptr noundef nonnull align 8 dereferenceable(24) %ref.tmp, double noundef %2, i64 noundef %3, double noundef %4, double noundef %5)
          to label %invoke.cont unwind label %lpad

invoke.cont:                                      ; preds = %entry
  call void @_ZNSt6vectorIN5boost10shared_ptrIN8QuantLib8DividendEEESaIS4_EED2Ev(ptr noundef nonnull align 8 dereferenceable(24) %ref.tmp) #12
  call void @llvm.lifetime.end.p0(i64 24, ptr %ref.tmp) #12
  ret double %call

lpad:                                             ; preds = %entry
  %6 = landingpad { ptr, i32 }
          cleanup
  %7 = extractvalue { ptr, i32 } %6, 0
  store ptr %7, ptr %exn.slot, align 8
  %8 = extractvalue { ptr, i32 } %6, 1
  store i32 %8, ptr %ehselector.slot, align 4
  call void @_ZNSt6vectorIN5boost10shared_ptrIN8QuantLib8DividendEEESaIS4_EED2Ev(ptr noundef nonnull align 8 dereferenceable(24) %ref.tmp) #12
  call void @llvm.lifetime.end.p0(i64 24, ptr %ref.tmp) #12
  br label %eh.resume

eh.resume:                                        ; preds = %lpad
  %exn = load ptr, ptr %exn.slot, align 8
  %sel = load i32, ptr %ehselector.slot, align 4
  %lpad.val = insertvalue { ptr, i32 } poison, ptr %exn, 0
  %lpad.val2 = insertvalue { ptr, i32 } %lpad.val, i32 %sel, 1
  resume { ptr, i32 } %lpad.val2
}