; Function Attrs: mustprogress uwtable
define noundef double @_ZNK8QuantLib13BarrierOption17impliedVolatilityEdRKN5boost10shared_ptrINS_30GeneralizedBlackScholesProcessEEEdmdd(ptr noundef nonnull align 8 dereferenceable(248) %this, double noundef %targetValue, ptr noundef nonnull align 8 dereferenceable(16) %process, double noundef %accuracy, i64 noundef %maxEvaluations, double noundef %minVol, double noundef %maxVol) local_unnamed_addr #9 align 2 personality ptr @__gxx_personality_v0 {
entry:
  %ref.tmp = alloca %"class.std::vector", align 8
  call void @llvm.lifetime.start.p0(i64 24, ptr nonnull %ref.tmp) #27
  call void @llvm.memset.p0.i64(ptr noundef nonnull align 8 dereferenceable(24) %ref.tmp, i8 0, i64 24, i1 false)
  %call = invoke noundef double @_ZNK8QuantLib13BarrierOption17impliedVolatilityEdRKN5boost10shared_ptrINS_30GeneralizedBlackScholesProcessEEERKSt6vectorINS2_INS_8DividendEEESaIS9_EEdmdd(ptr noundef nonnull align 8 dereferenceable(248) %this, double noundef %targetValue, ptr noundef nonnull align 8 dereferenceable(16) %process, ptr noundef nonnull align 8 dereferenceable(24) %ref.tmp, double noundef %accuracy, i64 noundef %maxEvaluations, double noundef %minVol, double noundef %maxVol)
          to label %invoke.cont unwind label %lpad

invoke.cont:                                      ; preds = %entry
  %0 = load ptr, ptr %ref.tmp, align 8, !tbaa !74
  %_M_finish.i = getelementptr inbounds nuw i8, ptr %ref.tmp, i64 8
  %1 = load ptr, ptr %_M_finish.i, align 8, !tbaa !76
  %cmp.not3.i.i.i.i = icmp eq ptr %0, %1
  br i1 %cmp.not3.i.i.i.i, label %invoke.cont.i, label %for.body.i.i.i.i

for.body.i.i.i.i:                                 ; preds = %invoke.cont, %_ZSt8_DestroyIN5boost10shared_ptrIN8QuantLib8DividendEEEEvPT_.exit.i.i.i.i
  %__first.addr.04.i.i.i.i = phi ptr [ %incdec.ptr.i.i.i.i, %_ZSt8_DestroyIN5boost10shared_ptrIN8QuantLib8DividendEEEEvPT_.exit.i.i.i.i ], [ %0, %invoke.cont ]
  %pn.i.i.i.i.i.i = getelementptr inbounds nuw i8, ptr %__first.addr.04.i.i.i.i, i64 8
  %2 = load ptr, ptr %pn.i.i.i.i.i.i, align 8, !tbaa !43
  %cmp.not.i.i.i.i.i.i.i = icmp eq ptr %2, null
  br i1 %cmp.not.i.i.i.i.i.i.i, label %_ZSt8_DestroyIN5boost10shared_ptrIN8QuantLib8DividendEEEEvPT_.exit.i.i.i.i, label %if.then.i.i.i.i.i.i.i

if.then.i.i.i.i.i.i.i:                            ; preds = %for.body.i.i.i.i
  %use_count_.i.i.i.i.i.i.i.i = getelementptr inbounds nuw i8, ptr %2, i64 8
  %3 = atomicrmw sub ptr %use_count_.i.i.i.i.i.i.i.i, i32 1 acq_rel, align 4
  %cmp.i.i.i.i.i.i.i.i = icmp eq i32 %3, 1
  br i1 %cmp.i.i.i.i.i.i.i.i, label %if.then.i.i.i.i.i.i.i.i, label %_ZSt8_DestroyIN5boost10shared_ptrIN8QuantLib8DividendEEEEvPT_.exit.i.i.i.i

if.then.i.i.i.i.i.i.i.i:                          ; preds = %if.then.i.i.i.i.i.i.i
  %vtable.i.i.i.i.i.i.i.i = load ptr, ptr %2, align 8, !tbaa !33
  %vfn.i.i.i.i.i.i.i.i = getelementptr inbounds i8, ptr %vtable.i.i.i.i.i.i.i.i, i64 16
  %4 = load ptr, ptr %vfn.i.i.i.i.i.i.i.i, align 8
  invoke void %4(ptr noundef nonnull align 8 dereferenceable(16) %2)
          to label %.noexc.i.i.i.i.i.i.i unwind label %terminate.lpad.i.i.i.i.i.i.i

.noexc.i.i.i.i.i.i.i:                             ; preds = %if.then.i.i.i.i.i.i.i.i
  %weak_count_.i.i.i.i.i.i.i.i.i = getelementptr inbounds nuw i8, ptr %2, i64 12
  %5 = atomicrmw sub ptr %weak_count_.i.i.i.i.i.i.i.i.i, i32 1 acq_rel, align 4
  %cmp.i.i.i.i.i.i.i.i.i = icmp eq i32 %5, 1
  br i1 %cmp.i.i.i.i.i.i.i.i.i, label %if.then.i.i.i.i.i.i.i.i.i, label %_ZSt8_DestroyIN5boost10shared_ptrIN8QuantLib8DividendEEEEvPT_.exit.i.i.i.i

if.then.i.i.i.i.i.i.i.i.i:                        ; preds = %.noexc.i.i.i.i.i.i.i
  %vtable.i.i.i.i.i.i.i.i.i = load ptr, ptr %2, align 8, !tbaa !33
  %vfn.i.i.i.i.i.i.i.i.i = getelementptr inbounds i8, ptr %vtable.i.i.i.i.i.i.i.i.i, i64 24
  %6 = load ptr, ptr %vfn.i.i.i.i.i.i.i.i.i, align 8
  invoke void %6(ptr noundef nonnull align 8 dereferenceable(16) %2)
          to label %_ZSt8_DestroyIN5boost10shared_ptrIN8QuantLib8DividendEEEEvPT_.exit.i.i.i.i unwind label %terminate.lpad.i.i.i.i.i.i.i

terminate.lpad.i.i.i.i.i.i.i:                     ; preds = %if.then.i.i.i.i.i.i.i.i.i, %if.then.i.i.i.i.i.i.i.i
  %7 = landingpad { ptr, i32 }
          catch ptr null
  %8 = extractvalue { ptr, i32 } %7, 0
  call void @__clang_call_terminate(ptr %8) #28
  unreachable

_ZSt8_DestroyIN5boost10shared_ptrIN8QuantLib8DividendEEEEvPT_.exit.i.i.i.i: ; preds = %if.then.i.i.i.i.i.i.i.i.i, %.noexc.i.i.i.i.i.i.i, %if.then.i.i.i.i.i.i.i, %for.body.i.i.i.i
  %incdec.ptr.i.i.i.i = getelementptr inbounds nuw i8, ptr %__first.addr.04.i.i.i.i, i64 16
  %cmp.not.i.i.i.i = icmp eq ptr %incdec.ptr.i.i.i.i, %1
  br i1 %cmp.not.i.i.i.i, label %invoke.contthread-pre-split.i, label %for.body.i.i.i.i, !llvm.loop !77

invoke.contthread-pre-split.i:                    ; preds = %_ZSt8_DestroyIN5boost10shared_ptrIN8QuantLib8DividendEEEEvPT_.exit.i.i.i.i
  %.pr.i = load ptr, ptr %ref.tmp, align 8, !tbaa !74
  br label %invoke.cont.i

invoke.cont.i:                                    ; preds = %invoke.contthread-pre-split.i, %invoke.cont
  %9 = phi ptr [ %.pr.i, %invoke.contthread-pre-split.i ], [ %0, %invoke.cont ]
  %tobool.not.i.i.i = icmp eq ptr %9, null
  br i1 %tobool.not.i.i.i, label %_ZNSt6vectorIN5boost10shared_ptrIN8QuantLib8DividendEEESaIS4_EED2Ev.exit, label %if.then.i.i.i

if.then.i.i.i:                                    ; preds = %invoke.cont.i
  %_M_end_of_storage.i.i = getelementptr inbounds nuw i8, ptr %ref.tmp, i64 16
  %10 = load ptr, ptr %_M_end_of_storage.i.i, align 8, !tbaa !79
  %sub.ptr.lhs.cast.i.i = ptrtoint ptr %10 to i64
  %sub.ptr.rhs.cast.i.i = ptrtoint ptr %9 to i64
  %sub.ptr.sub.i.i = sub i64 %sub.ptr.lhs.cast.i.i, %sub.ptr.rhs.cast.i.i
  call void @_ZdlPvm(ptr noundef nonnull %9, i64 noundef %sub.ptr.sub.i.i) #30
  br label %_ZNSt6vectorIN5boost10shared_ptrIN8QuantLib8DividendEEESaIS4_EED2Ev.exit

_ZNSt6vectorIN5boost10shared_ptrIN8QuantLib8DividendEEESaIS4_EED2Ev.exit: ; preds = %invoke.cont.i, %if.then.i.i.i
  call void @llvm.lifetime.end.p0(i64 24, ptr nonnull %ref.tmp) #27
  ret double %call

lpad:                                             ; preds = %entry
  %11 = landingpad { ptr, i32 }
          cleanup
  call void @_ZNSt6vectorIN5boost10shared_ptrIN8QuantLib8DividendEEESaIS4_EED2Ev(ptr noundef nonnull align 8 dereferenceable(24) %ref.tmp) #27
  call void @llvm.lifetime.end.p0(i64 24, ptr nonnull %ref.tmp) #27
  resume { ptr, i32 } %11
}